target datalayout = "e-m:e-p270:32:32-p271:32:32-p272:64:64-i64:64-i128:128-f80:128-n8:16:32:64-S128"
target triple = "x86_64-pc-linux-gnu"

%"struct.cv::Ptr" = type { %"class.std::shared_ptr" }
%"class.std::shared_ptr" = type { %"class.std::__shared_ptr" }
%"class.std::__shared_ptr" = type { ptr, %"class.std::__shared_count" }
%"class.std::__shared_count" = type { ptr }
%"class.cv::aruco::ArucoDetector" = type { %"class.cv::Algorithm", %"struct.cv::Ptr.4" }
%"class.cv::Algorithm" = type { ptr }
%"struct.cv::Ptr.4" = type { %"class.std::shared_ptr.5" }
%"class.std::shared_ptr.5" = type { %"class.std::__shared_ptr.6" }
%"class.std::__shared_ptr.6" = type { ptr, %"class.std::__shared_count" }
%"class.cv::aruco::CharucoDetector" = type { %"class.cv::Algorithm", %"struct.cv::Ptr" }
%"struct.cv::aruco::CharucoDetector::CharucoDetectorImpl" = type { %"class.cv::aruco::CharucoBoard", %"struct.cv::aruco::CharucoParameters", %"class.cv::aruco::ArucoDetector" }
%"class.cv::aruco::CharucoBoard" = type { %"class.cv::aruco::Board" }
%"class.cv::aruco::Board" = type { %"struct.cv::Ptr.0" }
%"struct.cv::Ptr.0" = type { %"class.std::shared_ptr.1" }
%"class.std::shared_ptr.1" = type { %"class.std::__shared_ptr.2" }
%"class.std::__shared_ptr.2" = type { ptr, %"class.std::__shared_count" }
%"struct.cv::aruco::CharucoParameters" = type <{ %"class.cv::Mat", %"class.cv::Mat", i32, i8, [3 x i8] }>
%"class.cv::Mat" = type { i32, i32, i32, i32, ptr, ptr, ptr, ptr, ptr, ptr, %"struct.cv::MatSize", %"struct.cv::MatStep" }
%"struct.cv::MatSize" = type { ptr }
%"struct.cv::MatStep" = type { ptr, [2 x i64] }

; Function Attrs: mustprogress nounwind uwtable
define linkonce_odr hidden noundef ptr @_ZNKSt12__shared_ptrIN2cv5aruco15CharucoDetector19CharucoDetectorImplELN9__gnu_cxx12_Lock_policyE2EE3getEv(ptr noundef nonnull align 8 dereferenceable(16) %0) #5 comdat align 2 {
  %2 = alloca ptr, align 8
  store ptr %0, ptr %2, align 8
  %3 = load ptr, ptr %2, align 8
  %4 = getelementptr inbounds %"class.std::__shared_ptr", ptr %3, i32 0, i32 0
  %5 = load ptr, ptr %4, align 8
  ret ptr %5
}

; Function Attrs: mustprogress uwtable
define linkonce_odr hidden noundef nonnull align 8 dereferenceable(197) ptr @_ZN2cv5aruco17CharucoParametersaSERKS1_(ptr noundef nonnull align 8 dereferenceable(197) %0, ptr noundef nonnull align 8 dereferenceable(197) %1) #4 comdat align 2 {
  %3 = alloca ptr, align 8
  %4 = alloca ptr, align 8
  store ptr %0, ptr %3, align 8
  store ptr %1, ptr %4, align 8
  %5 = load ptr, ptr %3, align 8
  %6 = getelementptr inbounds %"struct.cv::aruco::CharucoParameters", ptr %5, i32 0, i32 0
  %7 = load ptr, ptr %4, align 8
  %8 = getelementptr inbounds %"struct.cv::aruco::CharucoParameters", ptr %7, i32 0, i32 0
  %9 = call noundef nonnull align 8 dereferenceable(96) ptr @_ZN2cv3MataSERKS0_(ptr noundef nonnull align 8 dereferenceable(96) %6, ptr noundef nonnull align 8 dereferenceable(96) %8)
  %10 = getelementptr inbounds %"struct.cv::aruco::CharucoParameters", ptr %5, i32 0, i32 1
  %11 = load ptr, ptr %4, align 8
  %12 = getelementptr inbounds %"struct.cv::aruco::CharucoParameters", ptr %11, i32 0, i32 1
  %13 = call noundef nonnull align 8 dereferenceable(96) ptr @_ZN2cv3MataSERKS0_(ptr noundef nonnull align 8 dereferenceable(96) %10, ptr noundef nonnull align 8 dereferenceable(96) %12)
  %14 = getelementptr inbounds %"struct.cv::aruco::CharucoParameters", ptr %5, i32 0, i32 2
  %15 = load ptr, ptr %4, align 8
  %16 = getelementptr inbounds %"struct.cv::aruco::CharucoParameters", ptr %15, i32 0, i32 2
  call void @llvm.memcpy.p0.p0.i64(ptr align 8 %14, ptr align 8 %16, i64 5, i1 false)
  ret ptr %5
}

; Function Attrs: mustprogress nounwind uwtable
define linkonce_odr hidden noundef ptr @_ZNK2cv3PtrINS_5aruco15CharucoDetector19CharucoDetectorImplEEptEv(ptr noundef nonnull align 8 dereferenceable(16) %0) #5 comdat align 2 {
  %2 = alloca ptr, align 8
  store ptr %0, ptr %2, align 8
  %3 = load ptr, ptr %2, align 8
  %4 = call noundef ptr @_ZNKSt12__shared_ptrIN2cv5aruco15CharucoDetector19CharucoDetectorImplELN9__gnu_cxx12_Lock_policyE2EE3getEv(ptr noundef nonnull align 8 dereferenceable(16) %3) #3
  ret ptr %4
}

; Function Attrs: mustprogress uwtable
define void @_ZN2cv5aruco15CharucoDetector20setCharucoParametersERNS0_17CharucoParametersE(ptr noundef nonnull align 8 dereferenceable(24) %0, ptr noundef nonnull align 8 dereferenceable(197) %1) #4 align 2 {
  %3 = alloca ptr, align 8
  %4 = alloca ptr, align 8
  store ptr %0, ptr %3, align 8
  store ptr %1, ptr %4, align 8
  %5 = load ptr, ptr %3, align 8
  %6 = load ptr, ptr %4, align 8
  %7 = getelementptr inbounds %"class.cv::aruco::CharucoDetector", ptr %5, i32 0, i32 1
  %8 = call noundef ptr @_ZNK2cv3PtrINS_5aruco15CharucoDetector19CharucoDetectorImplEEptEv(ptr noundef nonnull align 8 dereferenceable(16) %7) #3
  %9 = getelementptr inbounds %"struct.cv::aruco::CharucoDetector::CharucoDetectorImpl", ptr %8, i32 0, i32 1
  %10 = call noundef nonnull align 8 dereferenceable(197) ptr @_ZN2cv5aruco17CharucoParametersaSERKS1_(ptr noundef nonnull align 8 dereferenceable(197) %9, ptr noundef nonnull align 8 dereferenceable(197) %6)
  ret void
}