; Function Attrs: mustprogress uwtable
define void @_ZN2cv5aruco15CharucoDetector20setCharucoParametersERNS0_17CharucoParametersE(ptr nocapture noundef nonnull readonly align 8 dereferenceable(24) %0, ptr noundef nonnull align 8 dereferenceable(197) %1) local_unnamed_addr #3 align 2 {
  %3 = getelementptr inbounds i8, ptr %0, i64 8
  %4 = load ptr, ptr %3, align 8
  %5 = getelementptr inbounds i8, ptr %4, i64 16
  %6 = tail call noundef nonnull align 8 dereferenceable(96) ptr @_ZN2cv3MataSERKS0_(ptr noundef nonnull align 8 dereferenceable(96) %5, ptr noundef nonnull align 8 dereferenceable(96) %1)
  %7 = getelementptr inbounds i8, ptr %4, i64 112
  %8 = getelementptr inbounds i8, ptr %1, i64 96
  %9 = tail call noundef nonnull align 8 dereferenceable(96) ptr @_ZN2cv3MataSERKS0_(ptr noundef nonnull align 8 dereferenceable(96) %7, ptr noundef nonnull align 8 dereferenceable(96) %8)
  %10 = getelementptr inbounds i8, ptr %4, i64 208
  %11 = getelementptr inbounds i8, ptr %1, i64 192
  tail call void @llvm.memcpy.p0.p0.i64(ptr noundef nonnull align 8 dereferenceable(5) %10, ptr noundef nonnull align 8 dereferenceable(5) %11, i64 5, i1 false)
  ret void
}